
ASEM-51 V1.3                                         Copyright (c) 2002 by W.W. Heinz                                         PAGE 1





       MCS-51 Family Macro Assembler   A S E M - 5 1   V 1.3
       =====================================================



	Source File:	LVL.ASM
	Object File:	LVL.hex
	List File:	LVL.lst



 Line  I  Addr  Code            Source

    1:				;ANALOG LEVEL METER ON HD44780 BASED 16x2 LCD
    2:				;14/03/2008
    3:				;ASTER
    4:
    5:
    6:		N      0000	ORG 0000H
    7:	  0000	80 2E		SJMP 0030H
    8:
    9:		N      0030	ORG 0030H
   10:
   11:
   12:
   13:
   14:	  0030	75 37 01	START: 	MOV 37H,#01H
   15:	  0033	75 38 01		MOV 38H,#01H
   16:	  0036	75 39 01		MOV 39H,#01H
   17:	  0039	75 3A 02		MOV 3AH,#02H
   18:
   19:	  003C	75 3B 07		MOV 3BH,#07H
   20:	  003F	75 3C 02		MOV 3CH,#02H
   21:	  0042	75 3D 01		MOV 3DH,#01H
   22:	  0045	75 3E 01		MOV 3EH,#01H
   23:	  0048	75 3F 01		MOV 3FH,#01H
   24:
   25:	  004B	74 38		LCD_BGN:MOV A,#38H
   26:	  004D	12 01 41		LCALL COMMAND
   27:	  0050	74 0C			MOV A,#0CH
   28:	  0052	12 01 41		LCALL COMMAND
   29:	  0055	74 06			MOV A,#06H
   30:	  0057	12 01 41		LCALL COMMAND
   31:	  005A	74 01			MOV A,#01H
   32:	  005C	12 01 41		LCALL COMMAND
   33:
   34:	  005F	90 01 70		MOV DPTR,#MSGL
   35:
   36:	  0062	E4		DISP0:	CLR A
   37:	  0063	93			MOVC A,@A+DPTR
   38:	  0064	B4 FF 02		CJNE A,#0FFH,NEXT
   39:	  0067	80 06			SJMP DONE
   40:	  0069	12 01 50	NEXT:	LCALL DISPLAY
   41:	  006C	A3			INC DPTR
   42:	  006D	80 F3			SJMP DISP0
   43:	  006F	00		DONE: 	NOP

ASEM-51 V1.3                                         Copyright (c) 2002 by W.W. Heinz                                         PAGE 2



 Line  I  Addr  Code            Source

   44:
   45:	  0070	74 40		AL_MTR:	MOV A,#40H
   46:	  0072	FF			MOV R7,A
   47:	  0073	12 01 41		LCALL COMMAND
   48:
   49:	  0076	12 00 97		LCALL CG_CLR
   50:
   51:	  0079	74 40			MOV A,#40H
   52:	  007B	FF			MOV R7,A
   53:	  007C	12 01 41		LCALL COMMAND
   54:
   55:	  007F	12 00 A1		LCALL CG_LOAD
   56:
   57:	  0082	74 C0			MOV A,#0C0H
   58:	  0084	12 01 41		LCALL COMMAND
   59:
   60:	  0087	74 00			MOV A,#00H
   61:	  0089	12 01 50	BACK:	LCALL DISPLAY
   62:	  008C	04			INC A
   63:	  008D	B4 08 F9		CJNE A,#08H,BACK
   64:
   65:	  0090	74 02			MOV A,#02H
   66:	  0092	12 01 41		LCALL COMMAND
   67:
   68:	  0095	80 FE		HERE:	SJMP HERE
   69:
   70:				;---------------------------------------------------------------------------------------------------
				----
   71:				;CLEAR CGRAM DATA
   72:
   73:	  0097	7E 40		CG_CLR:	MOV R6,#40H
   74:	  0099	74 00		RPTC:	MOV A,#00H
   75:	  009B	12 01 50		LCALL DISPLAY
   76:	  009E	DE F9			DJNZ R6,RPTC
   77:	  00A0	22			RET
   78:				;---------------------------------------------------------------------------------------------------
				----
   79:				;LOAD THE CHARACTER PATTERNS IN CGRAM
   80:
   81:	  00A1	7B 00		CG_LOAD:MOV R3,#00H
   82:
   83:	  00A3	AD 3A		DIS_8:	MOV R5,3AH
   84:	  00A5	BD 00 02		CJNE R5,#00H,NXT80
   85:	  00A8	80 16			SJMP OVR0
   86:	  00AA	AE 3C		NXT80:	MOV R6,3CH
   87:	  00AC	AC 3B		NXT801:	MOV R4,3BH
   88:	  00AE	74 1F		NXT8:	MOV A,#1FH
   89:	  00B0	0B			INC R3
   90:	  00B1	12 01 50		LCALL DISPLAY
   91:	  00B4	DC F8			DJNZ R4,NXT8
   92:	  00B6	74 00			MOV A,#00H
   93:	  00B8	0B			INC R3
   94:	  00B9	12 01 50		LCALL DISPLAY
   95:
   96:	  00BC	DE EE			DJNZ R6,NXT801
   97:	  00BE	DD EA			DJNZ R5,NXT80

ASEM-51 V1.3                                         Copyright (c) 2002 by W.W. Heinz                                         PAGE 3



 Line  I  Addr  Code            Source

   98:	  00C0	00		OVR0:	NOP
   99:
  100:
  101:	  00C1	AD 39		DIS_4:	MOV R5,39H
  102:	  00C3	BD 00 02		CJNE R5,#00H,NXT40
  103:	  00C6	80 14			SJMP OVR1
  104:	  00C8	AE 3D		NXT40:	MOV R6,3DH
  105:	  00CA	AC 3B		NXT401:	MOV R4,3BH
  106:	  00CC	74 1F		NXT4:	MOV A,#1FH
  107:	  00CE	0B			INC R3
  108:	  00CF	12 01 50		LCALL DISPLAY
  109:	  00D2	DC F8			DJNZ R4,NXT4
  110:	  00D4	74 00			MOV A,#00H
  111:	  00D6	0B			INC R3
  112:	  00D7	12 01 50		LCALL DISPLAY
  113:	  00DA	DE EE			DJNZ R6,NXT401
  114:	  00DC	00		OVR1:	NOP
  115:
  116:
  117:	  00DD	AD 38		DIS_21:	MOV R5,38H
  118:	  00DF	BD 00 02		CJNE R5,#00H,NXT20
  119:	  00E2	80 37			SJMP DIS_1
  120:
  121:	  00E4	AD 37		NXT20:	MOV R5,37H
  122:	  00E6	AC 3B			MOV R4,3BH
  123:	  00E8	BD 00 10		CJNE R5,#00H,NXT210
  124:	  00EB	74 1E		NXT2:	MOV A,#1EH
  125:	  00ED	0B			INC R3
  126:	  00EE	12 01 50		LCALL DISPLAY
  127:	  00F1	DC F8			DJNZ R4,NXT2
  128:	  00F3	74 00			MOV A,#00H
  129:	  00F5	0B			INC R3
  130:	  00F6	12 01 50		LCALL DISPLAY
  131:	  00F9	80 37			SJMP CLRR
  132:
  133:	  00FB	74 1F		NXT210:	MOV A,#1FH
  134:	  00FD	0B			INC R3
  135:	  00FE	12 01 50		LCALL DISPLAY
  136:	  0101	DC F8			DJNZ R4,NXT210
  137:	  0103	74 00			MOV A,#00H
  138:	  0105	0B			INC R3
  139:	  0106	12 01 50		LCALL DISPLAY
  140:
  141:	  0109	AC 3B			MOV R4,3BH
  142:	  010B	74 10		NXT2101:MOV A,#10H
  143:	  010D	0B			INC R3
  144:	  010E	12 01 50		LCALL DISPLAY
  145:	  0111	DC F8			DJNZ R4,NXT2101
  146:	  0113	74 00			MOV A,#00H
  147:	  0115	0B			INC R3
  148:	  0116	12 01 50		LCALL DISPLAY
  149:	  0119	80 17			SJMP CLRR
  150:
  151:
  152:	  011B	AC 3B		DIS_1:	MOV R4,3BH
  153:	  011D	AD 37			MOV R5,37H

ASEM-51 V1.3                                         Copyright (c) 2002 by W.W. Heinz                                         PAGE 4



 Line  I  Addr  Code            Source

  154:	  011F	BD 00 02		CJNE R5,#00H,REP1
  155:	  0122	80 0E			SJMP CLRR
  156:	  0124	74 18		REP1:	MOV A,#18H
  157:	  0126	0B			INC R3
  158:	  0127	12 01 50		LCALL DISPLAY
  159:	  012A	DC F8			DJNZ R4,REP1
  160:	  012C	74 00			MOV A,#00H
  161:	  012E	0B			INC R3
  162:	  012F	12 01 50		LCALL DISPLAY
  163:
  164:	  0132	74 00		CLRR:	MOV A,#00H
  165:	  0134	BB 40 02		CJNE R3,#40H,REPR
  166:	  0137	80 06			SJMP OVER
  167:	  0139	0B		REPR:	INC R3
  168:	  013A	12 01 50		LCALL DISPLAY
  169:	  013D	80 F3			SJMP CLRR
  170:
  171:	  013F	00		OVER:	NOP
  172:	  0140	22			RET
  173:
  174:				;---------------------------------------------------------------------------------------------------
				---
  175:				;LCD FUNCTIONS
  176:
  177:	  0141	12 01 5F	COMMAND:	LCALL READY
  178:	  0144	C2 92				CLR P1.2
  179:	  0146	C2 91				CLR P1.1
  180:	  0148	F5 A0				MOV P2,A
  181:	  014A	D2 93				SETB P1.3
  182:	  014C	00				NOP
  183:	  014D	C2 93				CLR P1.3
  184:	  014F	22				RET
  185:
  186:	  0150	12 01 5F	DISPLAY:	LCALL READY
  187:	  0153	C2 92				CLR P1.2
  188:	  0155	D2 91				SETB P1.1
  189:	  0157	F5 A0				MOV P2,A
  190:	  0159	D2 93				SETB P1.3
  191:	  015B	00				NOP
  192:	  015C	C2 93				CLR P1.3
  193:	  015E	22				RET
  194:
  195:
  196:	  015F	D2 A7		READY:		SETB P2.7
  197:	  0161	C2 91				CLR P1.1
  198:	  0163	D2 92				SETB P1.2
  199:	  0165	C2 93		BUSY:		CLR P1.3
  200:	  0167	D2 93				SETB P1.3
  201:	  0169	20 A7 F9			JB P2.7,BUSY
  202:	  016C	00				NOP
  203:	  016D	C2 93				CLR P1.3
  204:	  016F	22				RET
  205:
  206:				;---------------------------------------------------------------------------------------------------
				-----
  207:				;DISPLAY RECORD

ASEM-51 V1.3                                         Copyright (c) 2002 by W.W. Heinz                                         PAGE 5



 Line  I  Addr  Code            Source

  208:
  209:	  0170	41 6E 61 6C		MSGL: DB 'Analog meter'
	  0174	6F 67 20 6D
	  0178	65 74 65 72
  210:
  211:				END
  212:
  213:
  214:
  215:
  216:
  217:
  218:
  219:
  220:
  221:
  222:
  223:
  224:
  225:
  226:
  227:
  228:
  229:
  230:
  231:
  232:
  233:
  234:
  235:
  236:
  237:
  238:
  239:
  240:
  241:
  242:
  243:
  244:
  245:
  246:
  247:
  248:
  249:
  250:
  251:
  252:
  253:
  254:
  255:
  256:






ASEM-51 V1.3                                         Copyright (c) 2002 by W.W. Heinz                                         PAGE 6



                     register banks used:  ---

                     no errors




ASEM-51 V1.3                                         Copyright (c) 2002 by W.W. Heinz                                         PAGE 7





	       L I S T   O F   S Y M B O L S
	       =============================


SYMBOL				  TYPE     VALUE	LINE
------------------------------------------------------------
??ASEM_51			  NUMBER    8051
??VERSION			  NUMBER    0130
AC				  BIT	      D6
ACC				  DATA	      E0
AL_MTR				  CODE	    0070	  45
B				  DATA	      F0
BACK				  CODE	    0089	  61
BUSY				  CODE	    0165	 199
CG_CLR				  CODE	    0097	  73
CG_LOAD				  CODE	    00A1	  81
CLRR				  CODE	    0132	 164
COMMAND				  CODE	    0141	 177
CY				  BIT	      D7
DISP0				  CODE	    0062	  36
DISPLAY				  CODE	    0150	 186
DIS_1				  CODE	    011B	 152
DIS_21				  CODE	    00DD	 117
DIS_4				  CODE	    00C1	 101
DIS_8				  CODE	    00A3	  83
DONE				  CODE	    006F	  43
DPH				  DATA	      83
DPL				  DATA	      82
EA				  BIT	      AF
ES				  BIT	      AC
ET0				  BIT	      A9
ET1				  BIT	      AB
EX0				  BIT	      A8
EX1				  BIT	      AA
EXTI0				  CODE	    0003
EXTI1				  CODE	    0013
F0				  BIT	      D5
HERE				  CODE	    0095	  68
IE				  DATA	      A8
IE0				  BIT	      89
IE1				  BIT	      8B
INT0				  BIT	      B2
INT1				  BIT	      B3
IP				  DATA	      B8
IT0				  BIT	      88
IT1				  BIT	      8A
LCD_BGN				  CODE	    004B	  25
MSGL				  CODE	    0170	 209
NEXT				  CODE	    0069	  40
NXT2				  CODE	    00EB	 124
NXT20				  CODE	    00E4	 121
NXT210				  CODE	    00FB	 133
NXT2101				  CODE	    010B	 142
NXT4				  CODE	    00CC	 106
NXT40				  CODE	    00C8	 104
NXT401				  CODE	    00CA	 105

ASEM-51 V1.3                                         Copyright (c) 2002 by W.W. Heinz                                         PAGE 8



SYMBOL				  TYPE     VALUE	LINE
------------------------------------------------------------
NXT8				  CODE	    00AE	  88
NXT80				  CODE	    00AA	  86
NXT801				  CODE	    00AC	  87
OV				  BIT	      D2
OVER				  CODE	    013F	 171
OVR0				  CODE	    00C0	  98
OVR1				  CODE	    00DC	 114
P				  BIT	      D0
P0				  DATA	      80
P1				  DATA	      90
P2				  DATA	      A0
P3				  DATA	      B0
PCON				  DATA	      87
PS				  BIT	      BC
PSW				  DATA	      D0
PT0				  BIT	      B9
PT1				  BIT	      BB
PX0				  BIT	      B8
PX1				  BIT	      BA
RB8				  BIT	      9A
RD				  BIT	      B7
READY				  CODE	    015F	 196
REN				  BIT	      9C
REP1				  CODE	    0124	 156
REPR				  CODE	    0139	 167
RESET				  CODE	    0000
RI				  BIT	      98
RPTC				  CODE	    0099	  74
RS0				  BIT	      D3
RS1				  BIT	      D4
RXD				  BIT	      B0
SBUF				  DATA	      99
SCON				  DATA	      98
SINT				  CODE	    0023
SM0				  BIT	      9F
SM1				  BIT	      9E
SM2				  BIT	      9D
SP				  DATA	      81
START				  CODE	    0030	  14
T0				  BIT	      B4
T1				  BIT	      B5
TB8				  BIT	      9B
TCON				  DATA	      88
TF0				  BIT	      8D
TF1				  BIT	      8F
TH0				  DATA	      8C
TH1				  DATA	      8D
TI				  BIT	      99
TIMER0				  CODE	    000B
TIMER1				  CODE	    001B
TL0				  DATA	      8A
TL1				  DATA	      8B
TMOD				  DATA	      89
TR0				  BIT	      8C
TR1				  BIT	      8E
TXD				  BIT	      B1

ASEM-51 V1.3                                         Copyright (c) 2002 by W.W. Heinz                                         PAGE 9



SYMBOL				  TYPE     VALUE	LINE
------------------------------------------------------------
WR				  BIT	      B6
