
ASEM-51 V1.3                                         Copyright (c) 2002 by W.W. Heinz                                         PAGE 1





       MCS-51 Family Macro Assembler   A S E M - 5 1   V 1.3
       =====================================================



	Source File:	FULL.ASM
	Object File:	FULL.hex
	List File:	FULL.lst



 Line  I  Addr  Code            Source

    1:				;COUNT AND DISPLAY + ANALOG METER + SERIAL TRANSMISSION AT 9600 BPS
    2:				;ANEMOMETER COUNT PROCESSOR
    3:				;29/02/2008
    4:				;ASTER
    5:
    6:
    7:
    8:				$NOMOD51
    9:				$INCLUDE (89C52.MCU)
   10: 1			;   AT89C52 processor definition file
   11: 1			;   =================================
   12: 1
   13: 1	N	 80	P0	DATA	080H
   14: 1	N	 81	SP	DATA	081H
   15: 1	N	 82	DPL	DATA	082H
   16: 1	N	 83	DPH	DATA	083H
   17: 1	N	 87	PCON	DATA	087H
   18: 1	N	 88	TCON	DATA	088H
   19: 1	N	 89	TMOD	DATA	089H
   20: 1	N	 8A	TL0	DATA	08AH
   21: 1	N	 8B	TL1	DATA	08BH
   22: 1	N	 8C	TH0	DATA	08CH
   23: 1	N	 8D	TH1	DATA	08DH
   24: 1	N	 90	P1	DATA	090H
   25: 1	N	 98	SCON	DATA	098H
   26: 1	N	 99	SBUF	DATA	099H
   27: 1	N	 A0	P2	DATA	0A0H
   28: 1	N	 A8	IE	DATA	0A8H
   29: 1	N	 B0	P3	DATA	0B0H
   30: 1	N	 B8	IP	DATA	0B8H
   31: 1	N	 C8	T2CON	DATA	0C8H
   32: 1	N	 C9	T2MOD	DATA	0C9H
   33: 1	N	 CA	RCAP2L	DATA	0CAH
   34: 1	N	 CB	RCAP2H	DATA	0CBH
   35: 1	N	 CC	TL2	DATA	0CCH
   36: 1	N	 CD	TH2	DATA	0CDH
   37: 1	N	 D0	PSW	DATA	0D0H
   38: 1	N	 E0	ACC	DATA	0E0H
   39: 1	N	 F0	B	DATA	0F0H
   40: 1
   41: 1	N	 88	IT0	BIT	088H
   42: 1	N	 89	IE0	BIT	089H
   43: 1	N	 8A	IT1	BIT	08AH

ASEM-51 V1.3                                         Copyright (c) 2002 by W.W. Heinz                                         PAGE 2



 Line  I  Addr  Code            Source

   44: 1	N	 8B	IE1	BIT	08BH
   45: 1	N	 8C	TR0	BIT	08CH
   46: 1	N	 8D	TF0	BIT	08DH
   47: 1	N	 8E	TR1	BIT	08EH
   48: 1	N	 8F	TF1	BIT	08FH
   49: 1	N	 90	T2	BIT	090H
   50: 1	N	 91	T2EX	BIT	091H
   51: 1	N	 98	RI	BIT	098H
   52: 1	N	 99	TI	BIT	099H
   53: 1	N	 9A	RB8	BIT	09AH
   54: 1	N	 9B	TB8	BIT	09BH
   55: 1	N	 9C	REN	BIT	09CH
   56: 1	N	 9D	SM2	BIT	09DH
   57: 1	N	 9E	SM1	BIT	09EH
   58: 1	N	 9F	SM0	BIT	09FH
   59: 1	N	 A8	EX0	BIT	0A8H
   60: 1	N	 A9	ET0	BIT	0A9H
   61: 1	N	 AA	EX1	BIT	0AAH
   62: 1	N	 AB	ET1	BIT	0ABH
   63: 1	N	 AC	ES	BIT	0ACH
   64: 1	N	 AD	ET2	BIT	0ADH
   65: 1	N	 AF	EA	BIT	0AFH
   66: 1	N	 B0	RXD	BIT	0B0H
   67: 1	N	 B1	TXD	BIT	0B1H
   68: 1	N	 B2	INT0	BIT	0B2H
   69: 1	N	 B3	INT1	BIT	0B3H
   70: 1	N	 B4	T0	BIT	0B4H
   71: 1	N	 B5	T1	BIT	0B5H
   72: 1	N	 B6	WR	BIT	0B6H
   73: 1	N	 B7	RD	BIT	0B7H
   74: 1	N	 B8	PX0	BIT	0B8H
   75: 1	N	 B9	PT0	BIT	0B9H
   76: 1	N	 BA	PX1	BIT	0BAH
   77: 1	N	 BB	PT1	BIT	0BBH
   78: 1	N	 BC	PS	BIT	0BCH
   79: 1	N	 BD	PT2	BIT	0BDH
   80: 1	N	 C8	CPRL2	BIT	0C8H
   81: 1	N	 C9	CT2	BIT	0C9H
   82: 1	N	 CA	TR2	BIT	0CAH
   83: 1	N	 CB	EXEN2	BIT	0CBH
   84: 1	N	 CC	TCLK	BIT	0CCH
   85: 1	N	 CD	RCLK	BIT	0CDH
   86: 1	N	 CE	EXF2	BIT	0CEH
   87: 1	N	 CF	TF2	BIT	0CFH
   88: 1	N	 D0	P	BIT	0D0H
   89: 1	N	 D2	OV	BIT	0D2H
   90: 1	N	 D3	RS0	BIT	0D3H
   91: 1	N	 D4	RS1	BIT	0D4H
   92: 1	N	 D5	F0	BIT	0D5H
   93: 1	N	 D6	AC	BIT	0D6H
   94: 1	N	 D7	CY	BIT	0D7H
   95: 1
   96: 1	N      0000	RESET	CODE	000H
   97: 1	N      0003	EXTI0	CODE	003H
   98: 1	N      000B	TIMER0	CODE	00BH
   99: 1	N      0013	EXTI1	CODE	013H

ASEM-51 V1.3                                         Copyright (c) 2002 by W.W. Heinz                                         PAGE 3



 Line  I  Addr  Code            Source

  100: 1	N      001B	TIMER1	CODE	01BH
  101: 1	N      0023	SINT	CODE	023H
  102: 1	N      002B	TIMER2	CODE	02BH
  103:
  104:
  105:
  106:
  107:		N      0000	ORG 0000H
  108:	  0000	80 2E		SJMP 0030H
  109:		N      0030	ORG 0030H
  110:				;---------------------------------------------------------------------------------------------------
				------------
  111:				;MICROCOMPUTER INITIALISATIONS
  112:
  113:	  0030	E4		INI_DIS:	CLR A		;INITIALIZATION
  114:	  0031	F5 90				MOV P1,A
  115:	  0033	F5 A0				MOV P2,A
  116:
  117:	  0035	74 38				MOV A,#38H
  118:	  0037	12 02 2F			LCALL COMMAND
  119:	  003A	74 0C				MOV A,#0CH
  120:	  003C	12 02 2F			LCALL COMMAND
  121:	  003F	74 06				MOV A,#06H
  122:	  0041	12 02 2F			LCALL COMMAND
  123:	  0044	74 01				MOV A,#01H
  124:	  0046	12 02 2F			LCALL COMMAND
  125:
  126:	  0049	90 0F 20			MOV DPTR,#MSG3
  127:	  004C	E4		NXINI:		CLR A
  128:	  004D	93				MOVC A,@A+DPTR
  129:	  004E	B4 FF 02			CJNE A,#0FFH,PRCD
  130:	  0051	80 06				SJMP OUTR
  131:	  0053	12 02 3E	PRCD:		LCALL DISPLAY
  132:	  0056	A3				INC DPTR
  133:	  0057	80 F3				SJMP NXINI
  134:
  135:	  0059	00		OUTR:		NOP
  136:				;		MOV A,#0C0H		;SET DDRAM ADDRESS TO 40H = LINE 2 OF LCD
  137:				;		LCALL COMMAND
  138:				;
  139:				;		MOV DPTR,#MSG5
  140:				;NXINI0:	CLR A
  141:				;		MOVC A,@A+DPTR
  142:				;		CJNE A,#0FFH,PRCD0
  143:				;		SJMP START
  144:				;PRCD0:		LCALL DISPLAY
  145:				;		INC DPTR
  146:				;		SJMP NXINI0
  147:
  148:
  149:	  005A	75 89 15	START: 		MOV TMOD,#15H
  150:
  151:	  005D	75 A8 98			MOV IE,#98H
  152:	  0060	75 B8 08			MOV IP,#08H
  153:
  154:	  0063	75 8D 3C			MOV TH1,#3CH

ASEM-51 V1.3                                         Copyright (c) 2002 by W.W. Heinz                                         PAGE 4



 Line  I  Addr  Code            Source

  155:	  0066	75 8B B0			MOV TL1,#0B0H
  156:	  0069	D2 8E				SETB TR1
  157:	  006B	D2 8C				SETB TR0
  158:
  159:	  006D	E4				CLR A		;INITIALIZATION
  160:	  006E	F5 90				MOV P1,A
  161:	  0070	F5 A0				MOV P2,A
  162:	  0072	78 00				MOV R0,#00H
  163:	  0074	7A 00				MOV R2,#00H
  164:	  0076	7C 00				MOV R4,#00H
  165:	  0078	75 32 30			MOV 32H,#30H	;ASCII ZEROS
  166:	  007B	75 31 30			MOV 31H,#30H
  167:	  007E	75 30 30			MOV 30H,#30H
  168:	  0081	D2 B4				SETB P3.4	;CONFIGURE AS INPUT PIN
  169:
  170:
  171:	  0083	75 3B 07			MOV 3BH,#07H
  172:	  0086	75 3C 02			MOV 3CH,#02H
  173:	  0089	75 3D 01			MOV 3DH,#01H
  174:	  008C	75 3E 01			MOV 3EH,#01H
  175:	  008F	75 3F 01			MOV 3FH,#01H
  176:
  177:
  178:	  0092	75 98 40			MOV SCON,#40H		;SERIAL INITIALISATION
  179:	  0095	53 87 7F			ANL PCON,#7FH
  180:	  0098	75 C8 30			MOV T2CON,#30H
  181:	  009B	75 CB FF			MOV RCAP2H,#0FFH	;9600 BPS
  182:	  009E	75 CA D9			MOV RCAP2L,#0D9H
  183:
  184:
  185:
  186:	  00A1	7F 32		DELAY_INI:	MOV R7,#32H	; 4 SECONDS APPROX.
  187:	  00A3	7E FF				MOV R6,#0FFH
  188:	  00A5	7D FF				MOV R5,#0FFH
  189:	  00A7	DD FE				DJNZ R5,$
  190:	  00A9	DE FC				DJNZ R6,$-2
  191:	  00AB	DF FB				DJNZ R7,$-3
  192:
  193:
  194:						;SETB TR2
  195:	  00AD	75 55 32			MOV 55H,#32H
  196:	  00B0	75 56 00			MOV 56H,#00H		;INITIALISE TRACE BYTE
  197:						;LCALL XMIT		;START SERIAL COMM.
  198:
  199:				;---------------------------------------------------------------------------------------------------
				--
  200:
  201:	  00B3	8A 33		MAIN_T:		MOV 33H,R2
  202:	  00B5	A8 33				MOV R0,33H
  203:
  204:	  00B7	74 38		LCD_BGN:	MOV A,#38H
  205:	  00B9	12 02 2F			LCALL COMMAND
  206:	  00BC	74 0C				MOV A,#0CH
  207:	  00BE	12 02 2F			LCALL COMMAND
  208:	  00C1	74 06				MOV A,#06H
  209:	  00C3	12 02 2F			LCALL COMMAND

ASEM-51 V1.3                                         Copyright (c) 2002 by W.W. Heinz                                         PAGE 5



 Line  I  Addr  Code            Source

  210:	  00C6	74 01				MOV A,#01H
  211:	  00C8	12 02 2F			LCALL COMMAND
  212:
  213:
  214:
  215:	  00CB	E8		BCD_ASC:	MOV A,R0
  216:	  00CC	75 F0 64			MOV B,#64H
  217:	  00CF	84				DIV AB
  218:	  00D0	24 30				ADD A,#30H
  219:	  00D2	F5 32				MOV 32H,A
  220:	  00D4	E5 F0				MOV A,B
  221:	  00D6	75 F0 0A			MOV B,#0AH
  222:	  00D9	84				DIV AB
  223:	  00DA	24 30				ADD A,#30H
  224:	  00DC	F5 31				MOV 31H,A
  225:	  00DE	E5 F0				MOV A,B
  226:	  00E0	24 30				ADD A,#30H
  227:	  00E2	F5 30				MOV 30H,A	; COUNT PLACED IN 32H:31H:30H AS ASCII VALUES OF THE THREE DIGITS
  228:
  229:				;---------------------------------------------------------------------------------------------------
				------
  230:				;RESTART SERIAL TRANSMISSION FOR THE PRESENT PASS
  231:
  232:	  00E4	D2 CA		RESTR_SER:	SETB TR2
  233:	  00E6	12 02 5E			LCALL XMIT		;RESTART SERIAL COMM.
  234:
  235:
  236:
  237:				;---------------------------------------------------------------------------------------------------
				------
  238:				;ANALOG LEVEL METER
  239:				;LEVEL STORER
  240:				;RAM 3AH:39H:38H:37H::8'S:4'S:2'S:1'S
  241:				;INTEGRATED-14/03/2008
  242:
  243:	  00E9	E5 33		LEVL8:		MOV A,33H
  244:	  00EB	75 F0 08			MOV B,#08H
  245:	  00EE	84				DIV AB
  246:	  00EF	F5 3A				MOV 3AH,A
  247:	  00F1	E5 F0				MOV A,B
  248:	  00F3	75 F0 04			MOV B,#04H
  249:	  00F6	84				DIV AB
  250:	  00F7	F5 39				MOV 39H,A
  251:	  00F9	E5 F0				MOV A,B
  252:	  00FB	75 F0 02			MOV B,#02H
  253:	  00FE	84				DIV AB
  254:	  00FF	F5 38				MOV 38H,A
  255:	  0101	85 F0 37			MOV 37H,B
  256:
  257:	  0104	00		FINISHED:	NOP
  258:
  259:				;---------------------------------------------------------------------------------------------------
				------
  260:				; LCD DISPLAY ROUTINES
  261:
  262:	  0105	90 0F 00	LCD_RTN0:	MOV DPTR,#MSG1

ASEM-51 V1.3                                         Copyright (c) 2002 by W.W. Heinz                                         PAGE 6



 Line  I  Addr  Code            Source

  263:	  0108	E4		RPT0:		CLR A
  264:	  0109	93				MOVC A,@A+DPTR
  265:	  010A	B4 FF 02			CJNE A,#0FFH,NEXT0
  266:	  010D	80 06				SJMP OVER0
  267:	  010F	12 02 3E	NEXT0:		LCALL DISPLAY
  268:	  0112	A3				INC DPTR
  269:	  0113	80 F3				SJMP RPT0
  270:	  0115	00		OVER0:		NOP
  271:
  272:
  273:	  0116	E5 32		LCD_RTN1:	MOV A,32H
  274:	  0118	12 02 3E			LCALL DISPLAY
  275:	  011B	E5 31				MOV A,31H
  276:	  011D	12 02 3E			LCALL DISPLAY
  277:	  0120	E5 30				MOV A,30H
  278:	  0122	12 02 3E			LCALL DISPLAY
  279:	  0125	00		OVER1:		NOP
  280:
  281:
  282:	  0126	90 0F 0F	LCD_RTN2:	MOV DPTR,#MSG2
  283:	  0129	E4		RPT2:		CLR A
  284:	  012A	93				MOVC A,@A+DPTR
  285:	  012B	B4 FF 02			CJNE A,#0FFH,NEXT2
  286:	  012E	80 06				SJMP OVER2
  287:	  0130	12 02 3E	NEXT2:		LCALL DISPLAY
  288:	  0133	A3				INC DPTR
  289:	  0134	80 F3				SJMP RPT2
  290:	  0136	00		OVER2:		NOP
  291:
  292:				;---------------------------------------------------------------------------------------------------
				---------
  293:				;ANALOG LEVEL METER
  294:				;INTEGRATED-14/03/2008
  295:
  296:	  0137	74 40		AL_MTR:	MOV A,#40H
  297:	  0139	FF			MOV R7,A
  298:	  013A	12 02 2F		LCALL COMMAND
  299:
  300:	  013D	12 01 6B		LCALL CG_CLR
  301:
  302:	  0140	74 40			MOV A,#40H
  303:	  0142	FF			MOV R7,A
  304:	  0143	12 02 2F		LCALL COMMAND
  305:
  306:	  0146	12 01 75		LCALL CG_LOAD
  307:
  308:	  0149	74 C0			MOV A,#0C0H		;SET DDRAM ADDRESS TO 40H = LINE 2 OF LCD
  309:	  014B	12 02 2F		LCALL COMMAND
  310:
  311:	  014E	74 00			MOV A,#00H
  312:	  0150	12 02 3E	BACK:	LCALL DISPLAY
  313:	  0153	04			INC A
  314:	  0154	B4 08 F9		CJNE A,#08H,BACK
  315:
  316:	  0157	74 02			MOV A,#02H
  317:	  0159	12 02 2F		LCALL COMMAND

ASEM-51 V1.3                                         Copyright (c) 2002 by W.W. Heinz                                         PAGE 7



 Line  I  Addr  Code            Source

  318:
  319:				;---------------------------------------------------------------------------------------------------
				---------
  320:						;INC R2         TEST INSTRUCTION
  321:	  015C	7F 0C		DELAY_VISUAL:	MOV R7,#0CH	; 0.5 SECONDS APPROX.
  322:	  015E	7E FF				MOV R6,#0FFH
  323:	  0160	7D FF				MOV R5,#0FFH
  324:	  0162	DD FE				DJNZ R5,$
  325:	  0164	DE FC				DJNZ R6,$-2
  326:	  0166	DF FA				DJNZ R7,$-4
  327:
  328:	  0168	02 00 B3	STAY_END:	LJMP MAIN_T
  329:
  330:				;---------------------------------------------------------------------------------------------------
				---------
  331:				;CLEAR CGRAM DATA
  332:
  333:	  016B	7E 40		CG_CLR:	MOV R6,#40H
  334:	  016D	74 00		RPTC:	MOV A,#00H
  335:	  016F	12 02 3E		LCALL DISPLAY
  336:	  0172	DE F9			DJNZ R6,RPTC
  337:	  0174	22			RET
  338:				;---------------------------------------------------------------------------------------------------
				---------
  339:				;LOAD THE CHARACTER PATTERNS IN CGRAM
  340:
  341:	  0175	7B 00		CG_LOAD:MOV R3,#00H
  342:
  343:	  0177	AD 3A		DIS_8:	MOV R5,3AH
  344:	  0179	BD 00 02		CJNE R5,#00H,NXT80
  345:	  017C	80 16			SJMP OVR0
  346:	  017E	AE 3C		NXT80:	MOV R6,3CH
  347:	  0180	A9 3B		NXT801:	MOV R1,3BH
  348:	  0182	74 1F		NXT8:	MOV A,#1FH
  349:	  0184	0B			INC R3
  350:	  0185	12 02 3E		LCALL DISPLAY
  351:	  0188	D9 F8			DJNZ R1,NXT8
  352:	  018A	74 00			MOV A,#00H
  353:	  018C	0B			INC R3
  354:	  018D	12 02 3E		LCALL DISPLAY
  355:
  356:	  0190	DE EE			DJNZ R6,NXT801
  357:	  0192	DD EA			DJNZ R5,NXT80
  358:	  0194	00		OVR0:	NOP
  359:
  360:	  0195	BB 40 03		CJNE R3,#40H,FRR0
  361:	  0198	02 02 2D	FRRG0:	LJMP OVER
  362:	  019B	50 FB		FRR0:	JNC FRRG0
  363:
  364:
  365:	  019D	AD 39		DIS_4:	MOV R5,39H
  366:	  019F	BD 00 02		CJNE R5,#00H,NXT40
  367:	  01A2	80 14			SJMP OVR1
  368:	  01A4	AE 3D		NXT40:	MOV R6,3DH
  369:	  01A6	A9 3B		NXT401:	MOV R1,3BH
  370:	  01A8	74 1F		NXT4:	MOV A,#1FH

ASEM-51 V1.3                                         Copyright (c) 2002 by W.W. Heinz                                         PAGE 8



 Line  I  Addr  Code            Source

  371:	  01AA	0B			INC R3
  372:	  01AB	12 02 3E		LCALL DISPLAY
  373:	  01AE	D9 F8			DJNZ R1,NXT4
  374:	  01B0	74 00			MOV A,#00H
  375:	  01B2	0B			INC R3
  376:	  01B3	12 02 3E		LCALL DISPLAY
  377:	  01B6	DE EE			DJNZ R6,NXT401
  378:	  01B8	00		OVR1:	NOP
  379:
  380:	  01B9	BB 40 03		CJNE R3,#40H,FRR1
  381:	  01BC	02 02 2D	FRRG1:	LJMP OVER
  382:	  01BF	50 FB		FRR1:	JNC FRRG1
  383:
  384:	  01C1	AD 38		DIS_21:	MOV R5,38H
  385:	  01C3	BD 00 02		CJNE R5,#00H,NXT20
  386:	  01C6	80 3F			SJMP DIS_1
  387:
  388:	  01C8	AD 37		NXT20:	MOV R5,37H
  389:	  01CA	A9 3B			MOV R1,3BH
  390:	  01CC	BD 00 10		CJNE R5,#00H,NXT210
  391:	  01CF	74 1E		NXT2:	MOV A,#1EH
  392:	  01D1	0B			INC R3
  393:	  01D2	12 02 3E		LCALL DISPLAY
  394:	  01D5	D9 F8			DJNZ R1,NXT2
  395:	  01D7	74 00			MOV A,#00H
  396:	  01D9	0B			INC R3
  397:	  01DA	12 02 3E		LCALL DISPLAY
  398:	  01DD	80 3F			SJMP CLRR
  399:
  400:	  01DF	74 1F		NXT210:	MOV A,#1FH
  401:	  01E1	0B			INC R3
  402:	  01E2	12 02 3E		LCALL DISPLAY
  403:	  01E5	D9 F8			DJNZ R1,NXT210
  404:	  01E7	74 00			MOV A,#00H
  405:	  01E9	0B			INC R3
  406:	  01EA	12 02 3E		LCALL DISPLAY
  407:
  408:	  01ED	BB 40 03		CJNE R3,#40H,FRR2
  409:	  01F0	02 02 2D	FRRG2:	LJMP OVER
  410:	  01F3	50 FB		FRR2:	JNC FRRG2
  411:
  412:	  01F5	A9 3B			MOV R1,3BH
  413:	  01F7	74 10		NXT2101:MOV A,#10H
  414:	  01F9	0B			INC R3
  415:	  01FA	12 02 3E		LCALL DISPLAY
  416:	  01FD	D9 F8			DJNZ R1,NXT2101
  417:	  01FF	74 00			MOV A,#00H
  418:	  0201	0B			INC R3
  419:	  0202	12 02 3E		LCALL DISPLAY
  420:	  0205	80 17			SJMP CLRR
  421:
  422:
  423:	  0207	A9 3B		DIS_1:	MOV R1,3BH
  424:	  0209	AD 37			MOV R5,37H
  425:	  020B	BD 00 02		CJNE R5,#00H,REP1
  426:	  020E	80 0E			SJMP CLRR

ASEM-51 V1.3                                         Copyright (c) 2002 by W.W. Heinz                                         PAGE 9



 Line  I  Addr  Code            Source

  427:	  0210	74 18		REP1:	MOV A,#18H
  428:	  0212	0B			INC R3
  429:	  0213	12 02 3E		LCALL DISPLAY
  430:	  0216	D9 F8			DJNZ R1,REP1
  431:	  0218	74 00			MOV A,#00H
  432:	  021A	0B			INC R3
  433:	  021B	12 02 3E		LCALL DISPLAY
  434:
  435:	  021E	74 00		CLRR:	MOV A,#00H
  436:	  0220	BB 40 02		CJNE R3,#40H,REPR
  437:	  0223	80 08			SJMP OVER
  438:	  0225	50 06		REPR:	JNC OVER
  439:	  0227	0B			INC R3
  440:	  0228	12 02 3E		LCALL DISPLAY
  441:	  022B	80 F1			SJMP CLRR
  442:
  443:	  022D	00		OVER:	NOP
  444:	  022E	22			RET
  445:
  446:				;---------------------------------------------------------------------------------------------------
				---------
  447:				;LCD FUNCTIONS
  448:
  449:	  022F	12 02 4D	COMMAND:	LCALL READY
  450:	  0232	C2 92				CLR P1.2
  451:	  0234	C2 91				CLR P1.1
  452:	  0236	F5 A0				MOV P2,A
  453:	  0238	D2 93				SETB P1.3
  454:	  023A	00				NOP
  455:	  023B	C2 93				CLR P1.3
  456:	  023D	22				RET
  457:
  458:	  023E	12 02 4D	DISPLAY:	LCALL READY
  459:	  0241	C2 92				CLR P1.2
  460:	  0243	D2 91				SETB P1.1
  461:	  0245	F5 A0				MOV P2,A
  462:	  0247	D2 93				SETB P1.3
  463:	  0249	00				NOP
  464:	  024A	C2 93				CLR P1.3
  465:	  024C	22				RET
  466:
  467:
  468:	  024D	D2 A7		READY:		SETB P2.7
  469:	  024F	C2 91				CLR P1.1
  470:	  0251	D2 92				SETB P1.2
  471:	  0253	C2 93		BUSY:		CLR P1.3
  472:	  0255	D2 93				SETB P1.3
  473:	  0257	20 A7 F9			JB P2.7,BUSY
  474:	  025A	00				NOP
  475:	  025B	C2 93				CLR P1.3
  476:	  025D	22				RET
  477:
  478:				;---------------------------------------------------------------------------------------------------
				--------
  479:				;SERIAL TRANSMISSION CONTROL ROUTINE
  480:

ASEM-51 V1.3                                        Copyright (c) 2002 by W.W. Heinz                                         PAGE 10



 Line  I  Addr  Code            Source

  481:	  025E	C0 E0		XMIT:		PUSH ACC
  482:	  0260	C0 00				PUSH 00H
  483:
  484:	  0262	E4		XMIT0:		CLR A
  485:	  0263	A8 55				MOV R0,55H
  486:	  0265	B8 2F 0B			CJNE R0,#2FH,CONTS
  487:	  0268	78 32				MOV R0,#32H
  488:	  026A	74 0D				MOV A,#0DH
  489:	  026C	75 56 A5			MOV 56H,#0A5H		;LEAVE A TRACE
  490:	  026F	F5 99				MOV SBUF,A
  491:	  0271	80 04				SJMP TRIP
  492:
  493:	  0273	E6		CONTS:		MOV A,@R0
  494:	  0274	F5 99				MOV SBUF,A
  495:	  0276	18				DEC R0
  496:
  497:	  0277	88 55		TRIP:		MOV 55H,R0
  498:	  0279	D0 00				POP 00H
  499:	  027B	D0 E0				POP ACC
  500:	  027D	22				RET
  501:
  502:				;---------------------------------------------------------------------------------------------------
				--------
  503:				;INTERRUPT SERVICE ROUTINE FOR TIMER1 GEN-50MSx20
  504:
  505:
  506:		N      001B	ORG 001BH
  507:	  001B	02 08 00			LJMP 0800H
  508:		N      0800	ORG 0800H
  509:	  0800	C2 8E				CLR TR1
  510:	  0802	75 8D 3C			MOV TH1,#3CH
  511:	  0805	75 8B BA			MOV TL1,#0BAH
  512:	  0808	0C				INC R4
  513:	  0809	D2 8E				SETB TR1
  514:	  080B	BC 14 18			CJNE R4,#14H,SKIP
  515:	  080E	7C 00				MOV R4,#00H
  516:	  0810	C2 8C				CLR TR0
  517:	  0812	C2 8E				CLR TR1
  518:	  0814	AA 8A				MOV R2,TL0	;ABSORB LOWER BYTE
  519:
  520:
  521:						;INC R2		;TEST INSTRUCTION
  522:	  0816	75 8C 00			MOV TH0,#00H
  523:	  0819	75 8A 00			MOV TL0,#00H
  524:	  081C	75 8D 3C			MOV TH1,#3CH
  525:	  081F	75 8B BA			MOV TL1,#0BAH
  526:	  0822	D2 8C				SETB TR0
  527:	  0824	D2 8E				SETB TR1
  528:	  0826	32		SKIP:		RETI
  529:
  530:
  531:				;---------------------------------------------------------------------------------------------------
				--------
  532:				;SERIAL INTERRUPT ROUTINE
  533:
  534:		N      0023	ORG 0023H

ASEM-51 V1.3                                        Copyright (c) 2002 by W.W. Heinz                                         PAGE 11



 Line  I  Addr  Code            Source

  535:
  536:	  0023	02 09 00			LJMP 0900H
  537:		N      0900	ORG 0900H
  538:
  539:	  0900	00		SER_INT:	NOP
  540:	  0901	C2 99				CLR TI
  541:
  542:	  0903	C0 E0				PUSH ACC
  543:	  0905	E5 56				MOV A,56H		;GET TRACE BYTE
  544:	  0907	B4 A5 07			CJNE A,#0A5H,STPW
  545:	  090A	C2 CA				CLR TR2			;STOP TIMER2
  546:	  090C	75 56 00			MOV 56H,#00H		;ERASE TRACE
  547:	  090F	80 04				SJMP TMPSTP
  548:
  549:	  0911	00		STPW:		NOP
  550:	  0912	12 02 5E			LCALL XMIT
  551:	  0915	00		TMPSTP:		NOP
  552:	  0916	D0 E0				POP ACC
  553:	  0918	32				RETI
  554:
  555:
  556:
  557:				;---------------------------------------------------------------------------------------------------
				--------
  558:
  559:		N      0F00	ORG 0F00H
  560:
  561:	  0F00	53 50 45 45	MSG1: DB 'SPEED = '
	  0F04	44 20 3D 20
  562:
  563:		N      0F0F	ORG  0F0FH
  564:
  565:	  0F0F	20 52 50 53	MSG2: DB ' RPS'
  566:
  567:		N      0F20	ORG 0F20H
  568:
  569:	  0F20	49 6E 69 74	MSG3:	DB'Initialising...'
	  0F24	69 61 6C 69
	  0F28	73 69 6E 67
	  0F2C	2E 2E 2E
  570:
  571:		N      0F30	ORG 0F30H
  572:
  573:	  0F30	52 75 6E 6E	MSG5: 	DB'Running comm chk'
	  0F34	69 6E 67 20
	  0F38	63 6F 6D 6D
	  0F3C	20 63 68 6B
  574:
  575:				END





                     register banks used:  ---


ASEM-51 V1.3                                        Copyright (c) 2002 by W.W. Heinz                                         PAGE 12



                     no errors




ASEM-51 V1.3                                        Copyright (c) 2002 by W.W. Heinz                                         PAGE 13





	       L I S T   O F   S Y M B O L S
	       =============================


SYMBOL				  TYPE     VALUE	LINE
------------------------------------------------------------
??ASEM_51			  NUMBER    8051
??VERSION			  NUMBER    0130
AC				  BIT	      D6	  93
ACC				  DATA	      E0	  38
AL_MTR				  CODE	    0137	 296
B				  DATA	      F0	  39
BACK				  CODE	    0150	 312
BCD_ASC				  CODE	    00CB	 215
BUSY				  CODE	    0253	 471
CG_CLR				  CODE	    016B	 333
CG_LOAD				  CODE	    0175	 341
CLRR				  CODE	    021E	 435
COMMAND				  CODE	    022F	 449
CONTS				  CODE	    0273	 493
CPRL2				  BIT	      C8	  80
CT2				  BIT	      C9	  81
CY				  BIT	      D7	  94
DELAY_INI			  CODE	    00A1	 186
DELAY_VISUAL			  CODE	    015C	 321
DISPLAY				  CODE	    023E	 458
DIS_1				  CODE	    0207	 423
DIS_21				  CODE	    01C1	 384
DIS_4				  CODE	    019D	 365
DIS_8				  CODE	    0177	 343
DPH				  DATA	      83	  16
DPL				  DATA	      82	  15
EA				  BIT	      AF	  65
ES				  BIT	      AC	  63
ET0				  BIT	      A9	  60
ET1				  BIT	      AB	  62
ET2				  BIT	      AD	  64
EX0				  BIT	      A8	  59
EX1				  BIT	      AA	  61
EXEN2				  BIT	      CB	  83
EXF2				  BIT	      CE	  86
EXTI0				  CODE	    0003	  97
EXTI1				  CODE	    0013	  99
F0				  BIT	      D5	  92
FINISHED			  CODE	    0104	 257
FRR0				  CODE	    019B	 362
FRR1				  CODE	    01BF	 382
FRR2				  CODE	    01F3	 410
FRRG0				  CODE	    0198	 361
FRRG1				  CODE	    01BC	 381
FRRG2				  CODE	    01F0	 409
IE				  DATA	      A8	  28
IE0				  BIT	      89	  42
IE1				  BIT	      8B	  44
INI_DIS				  CODE	    0030	 113
INT0				  BIT	      B2	  68

ASEM-51 V1.3                                        Copyright (c) 2002 by W.W. Heinz                                         PAGE 14



SYMBOL				  TYPE     VALUE	LINE
------------------------------------------------------------
INT1				  BIT	      B3	  69
IP				  DATA	      B8	  30
IT0				  BIT	      88	  41
IT1				  BIT	      8A	  43
LCD_BGN				  CODE	    00B7	 204
LCD_RTN0			  CODE	    0105	 262
LCD_RTN1			  CODE	    0116	 273
LCD_RTN2			  CODE	    0126	 282
LEVL8				  CODE	    00E9	 243
MAIN_T				  CODE	    00B3	 201
MSG1				  CODE	    0F00	 561
MSG2				  CODE	    0F0F	 565
MSG3				  CODE	    0F20	 569
MSG5				  CODE	    0F30	 573
NEXT0				  CODE	    010F	 267
NEXT2				  CODE	    0130	 287
NXINI				  CODE	    004C	 127
NXT2				  CODE	    01CF	 391
NXT20				  CODE	    01C8	 388
NXT210				  CODE	    01DF	 400
NXT2101				  CODE	    01F7	 413
NXT4				  CODE	    01A8	 370
NXT40				  CODE	    01A4	 368
NXT401				  CODE	    01A6	 369
NXT8				  CODE	    0182	 348
NXT80				  CODE	    017E	 346
NXT801				  CODE	    0180	 347
OUTR				  CODE	    0059	 135
OV				  BIT	      D2	  89
OVER				  CODE	    022D	 443
OVER0				  CODE	    0115	 270
OVER1				  CODE	    0125	 279
OVER2				  CODE	    0136	 290
OVR0				  CODE	    0194	 358
OVR1				  CODE	    01B8	 378
P				  BIT	      D0	  88
P0				  DATA	      80	  13
P1				  DATA	      90	  24
P2				  DATA	      A0	  27
P3				  DATA	      B0	  29
PCON				  DATA	      87	  17
PRCD				  CODE	    0053	 131
PS				  BIT	      BC	  78
PSW				  DATA	      D0	  37
PT0				  BIT	      B9	  75
PT1				  BIT	      BB	  77
PT2				  BIT	      BD	  79
PX0				  BIT	      B8	  74
PX1				  BIT	      BA	  76
RB8				  BIT	      9A	  53
RCAP2H				  DATA	      CB	  34
RCAP2L				  DATA	      CA	  33
RCLK				  BIT	      CD	  85
RD				  BIT	      B7	  73
READY				  CODE	    024D	 468
REN				  BIT	      9C	  55

ASEM-51 V1.3                                        Copyright (c) 2002 by W.W. Heinz                                         PAGE 15



SYMBOL				  TYPE     VALUE	LINE
------------------------------------------------------------
REP1				  CODE	    0210	 427
REPR				  CODE	    0225	 438
RESET				  CODE	    0000	  96
RESTR_SER			  CODE	    00E4	 232
RI				  BIT	      98	  51
RPT0				  CODE	    0108	 263
RPT2				  CODE	    0129	 283
RPTC				  CODE	    016D	 334
RS0				  BIT	      D3	  90
RS1				  BIT	      D4	  91
RXD				  BIT	      B0	  66
SBUF				  DATA	      99	  26
SCON				  DATA	      98	  25
SER_INT				  CODE	    0900	 539
SINT				  CODE	    0023	 101
SKIP				  CODE	    0826	 528
SM0				  BIT	      9F	  58
SM1				  BIT	      9E	  57
SM2				  BIT	      9D	  56
SP				  DATA	      81	  14
START				  CODE	    005A	 149
STAY_END			  CODE	    0168	 328
STPW				  CODE	    0911	 549
T0				  BIT	      B4	  70
T1				  BIT	      B5	  71
T2				  BIT	      90	  49
T2CON				  DATA	      C8	  31
T2EX				  BIT	      91	  50
T2MOD				  DATA	      C9	  32
TB8				  BIT	      9B	  54
TCLK				  BIT	      CC	  84
TCON				  DATA	      88	  18
TF0				  BIT	      8D	  46
TF1				  BIT	      8F	  48
TF2				  BIT	      CF	  87
TH0				  DATA	      8C	  22
TH1				  DATA	      8D	  23
TH2				  DATA	      CD	  36
TI				  BIT	      99	  52
TIMER0				  CODE	    000B	  98
TIMER1				  CODE	    001B	 100
TIMER2				  CODE	    002B	 102
TL0				  DATA	      8A	  20
TL1				  DATA	      8B	  21
TL2				  DATA	      CC	  35
TMOD				  DATA	      89	  19
TMPSTP				  CODE	    0915	 551
TR0				  BIT	      8C	  45
TR1				  BIT	      8E	  47
TR2				  BIT	      CA	  82
TRIP				  CODE	    0277	 497
TXD				  BIT	      B1	  67
WR				  BIT	      B6	  72
XMIT				  CODE	    025E	 481
XMIT0				  CODE	    0262	 484
