BL51 BANKED LINKER/LOCATER V6.11                                                        05/07/2009  10:24:47  PAGE 1


BL51 BANKED LINKER/LOCATER V6.11, INVOKED BY:
E:\PROGRAM FILES\KEIL\C51\BIN\BL51.EXE 1serrx.obj TO testing RAMSIZE (256) CODE (0X0000-0X1FFF)


INPUT MODULES INCLUDED:
  1serrx.obj (1SERRX)


LINK MAP OF MODULE:  testing (1SERRX)


            TYPE    BASE      LENGTH    RELOCATION   SEGMENT NAME
            -----------------------------------------------------

            * * * * * * *   D A T A   M E M O R Y   * * * * * * *
            REG     0000H     0008H     ABSOLUTE     "REG BANK 0"

            * * * * * * *   C O D E   M E M O R Y   * * * * * * *
            CODE    0000H     1043H     ABSOLUTE     



SYMBOL TABLE OF MODULE:  testing (1SERRX)

  VALUE           TYPE          NAME
  ----------------------------------

  -------         MODULE        1SERRX
  B:00D0H.6       SYMBOL        AC
  D:00E0H         SYMBOL        ACC
  D:00F0H         SYMBOL        B
  C:1009H         SYMBOL        BACKSPACE
  C:007CH         SYMBOL        BUSY
  C:0067H         SYMBOL        COMMAND
  C:102EH         SYMBOL        CONT
  C:1031H         SYMBOL        CONT2
  B:00C8H.0       SYMBOL        CP_RL2
  B:00D0H.7       SYMBOL        CY
  B:00C8H.1       SYMBOL        C_T2
  C:0087H         SYMBOL        DISPLAY
  D:0083H         SYMBOL        DPH
  D:0082H         SYMBOL        DPL
  B:00A8H.7       SYMBOL        EA
  B:00A8H.4       SYMBOL        ES
  B:00A8H.1       SYMBOL        ET0
  B:00A8H.3       SYMBOL        ET1
  B:00A8H.5       SYMBOL        ET2
  B:00A8H.0       SYMBOL        EX0
  B:00A8H.2       SYMBOL        EX1
  B:00C8H.3       SYMBOL        EXEN2
  B:00C8H.6       SYMBOL        EXF2
  C:1042H         SYMBOL        EXIT
  B:00D0H.5       SYMBOL        F0
  B:00D0H.1       SYMBOL        F1
  C:103DH         SYMBOL        GOON
  C:0065H         SYMBOL        HERE
  D:00A8H         SYMBOL        IE
  B:0088H.1       SYMBOL        IE0
BL51 BANKED LINKER/LOCATER V6.11                                                      05/07/2009  10:24:47  PAGE 2


  B:0088H.3       SYMBOL        IE1
  C:003AH         SYMBOL        INIT
  B:00B0H.2       SYMBOL        INT0
  B:00B0H.3       SYMBOL        INT1
  D:00B8H         SYMBOL        IP
  B:0088H.0       SYMBOL        IT0
  B:0088H.2       SYMBOL        IT1
  C:1035H         SYMBOL        LINE2
  C:1024H         SYMBOL        NEXT
  B:00D0H.2       SYMBOL        OV
  B:00D0H.0       SYMBOL        P
  D:0080H         SYMBOL        P0
  B:0080H.0       SYMBOL        P0_0
  B:0080H.1       SYMBOL        P0_1
  B:0080H.2       SYMBOL        P0_2
  B:0080H.3       SYMBOL        P0_3
  B:0080H.4       SYMBOL        P0_4
  B:0080H.5       SYMBOL        P0_5
  B:0080H.6       SYMBOL        P0_6
  B:0080H.7       SYMBOL        P0_7
  D:0090H         SYMBOL        P1
  B:0090H.0       SYMBOL        P1_0
  B:0090H.1       SYMBOL        P1_1
  B:0090H.2       SYMBOL        P1_2
  B:0090H.3       SYMBOL        P1_3
  B:0090H.4       SYMBOL        P1_4
  B:0090H.5       SYMBOL        P1_5
  B:0090H.6       SYMBOL        P1_6
  B:0090H.7       SYMBOL        P1_7
  D:00A0H         SYMBOL        P2
  B:00A0H.0       SYMBOL        P2_0
  B:00A0H.1       SYMBOL        P2_1
  B:00A0H.2       SYMBOL        P2_2
  B:00A0H.3       SYMBOL        P2_3
  B:00A0H.4       SYMBOL        P2_4
  B:00A0H.5       SYMBOL        P2_5
  B:00A0H.6       SYMBOL        P2_6
  B:00A0H.7       SYMBOL        P2_7
  D:00B0H         SYMBOL        P3
  B:00B0H.0       SYMBOL        P3_0
  B:00B0H.1       SYMBOL        P3_1
  B:00B0H.2       SYMBOL        P3_2
  B:00B0H.3       SYMBOL        P3_3
  B:00B0H.4       SYMBOL        P3_4
  B:00B0H.5       SYMBOL        P3_5
  B:00B0H.6       SYMBOL        P3_6
  B:00B0H.7       SYMBOL        P3_7
  D:0087H         SYMBOL        PCON
  B:00B8H.4       SYMBOL        PS
  D:00D0H         SYMBOL        PSW
  B:00B8H.1       SYMBOL        PT0
  B:00B8H.3       SYMBOL        PT1
  B:00B8H.5       SYMBOL        PT2
  B:00B8H.0       SYMBOL        PX0
  B:00B8H.2       SYMBOL        PX1
  B:0098H.2       SYMBOL        RB8
  D:00CBH         SYMBOL        RCAP2H
BL51 BANKED LINKER/LOCATER V6.11                                                      05/07/2009  10:24:47  PAGE 3


  D:00CAH         SYMBOL        RCAP2L
  B:00C8H.5       SYMBOL        RCLK
  B:00B0H.7       SYMBOL        RD
  C:0096H         SYMBOL        READ
  C:0076H         SYMBOL        READY
  B:0098H.4       SYMBOL        REN
  B:0098H.0       SYMBOL        RI
  B:00D0H.3       SYMBOL        RS0
  B:00D0H.4       SYMBOL        RS1
  B:00B0H.0       SYMBOL        RXD
  C:1000H         SYMBOL        RXDC
  D:0099H         SYMBOL        SBUF
  D:0098H         SYMBOL        SCON
  B:0098H.7       SYMBOL        SM0
  B:0098H.6       SYMBOL        SM1
  B:0098H.5       SYMBOL        SM2
  D:0081H         SYMBOL        SP
  C:0030H         SYMBOL        START
  C:004EH         SYMBOL        STARTS
  B:00B0H.4       SYMBOL        T0
  B:00B0H.5       SYMBOL        T1
  B:0090H.0       SYMBOL        T2
  D:00C8H         SYMBOL        T2CON
  B:0090H.1       SYMBOL        T2EX
  D:00C9H         SYMBOL        T2MOD
  B:0098H.3       SYMBOL        TB8
  B:00C8H.4       SYMBOL        TCLK
  D:0088H         SYMBOL        TCON
  B:0088H.5       SYMBOL        TF0
  B:0088H.7       SYMBOL        TF1
  B:00C8H.7       SYMBOL        TF2
  D:008CH         SYMBOL        TH0
  D:008DH         SYMBOL        TH1
  D:00CDH         SYMBOL        TH2
  B:0098H.1       SYMBOL        TI
  D:008AH         SYMBOL        TL0
  D:008BH         SYMBOL        TL1
  D:00CCH         SYMBOL        TL2
  D:0089H         SYMBOL        TMOD
  B:0088H.4       SYMBOL        TR0
  B:0088H.6       SYMBOL        TR1
  B:00C8H.2       SYMBOL        TR2
  B:00B0H.1       SYMBOL        TXD
  B:00B0H.6       SYMBOL        WR
  C:0000H         LINE#         24
  C:0030H         LINE#         31
  C:0031H         LINE#         32
  C:0033H         LINE#         33
  C:0035H         LINE#         34
  C:0037H         LINE#         35
  C:0039H         LINE#         36
  C:003AH         LINE#         39
  C:003CH         LINE#         40
  C:003FH         LINE#         41
  C:0041H         LINE#         42
  C:0044H         LINE#         43
  C:0046H         LINE#         44
BL51 BANKED LINKER/LOCATER V6.11                                                      05/07/2009  10:24:47  PAGE 4


  C:0049H         LINE#         45
  C:004BH         LINE#         46
  C:004EH         LINE#         50
  C:0051H         LINE#         51
  C:0054H         LINE#         53
  C:0057H         LINE#         54
  C:005AH         LINE#         56
  C:005DH         LINE#         57
  C:0060H         LINE#         58
  C:0063H         LINE#         60
  C:0065H         LINE#         63
  C:0067H         LINE#         72
  C:006AH         LINE#         73
  C:006CH         LINE#         74
  C:006EH         LINE#         75
  C:0070H         LINE#         76
  C:0072H         LINE#         77
  C:0073H         LINE#         78
  C:0075H         LINE#         79
  C:0076H         LINE#         82
  C:0078H         LINE#         83
  C:007AH         LINE#         84
  C:007CH         LINE#         85
  C:007EH         LINE#         86
  C:0080H         LINE#         87
  C:0083H         LINE#         88
  C:0084H         LINE#         89
  C:0086H         LINE#         90
  C:0087H         LINE#         93
  C:008AH         LINE#         94
  C:008CH         LINE#         95
  C:008EH         LINE#         96
  C:0090H         LINE#         97
  C:0092H         LINE#         98
  C:0093H         LINE#         99
  C:0095H         LINE#         100
  C:0096H         LINE#         102
  C:0098H         LINE#         103
  C:009AH         LINE#         104
  C:009DH         LINE#         105
  C:009FH         LINE#         106
  C:00A0H         LINE#         107
  C:00A2H         LINE#         108
  C:00A3H         LINE#         109
  C:00A5H         LINE#         110
  C:00A7H         LINE#         111
  C:00A9H         LINE#         112
  C:0023H         LINE#         119
  C:1000H         LINE#         122
  C:1001H         LINE#         123
  C:1004H         LINE#         124
  C:1006H         LINE#         125
  C:1008H         LINE#         126
  C:1009H         LINE#         128
  C:100CH         LINE#         129
  C:100FH         LINE#         130
  C:1010H         LINE#         131
BL51 BANKED LINKER/LOCATER V6.11                                                      05/07/2009  10:24:47  PAGE 5


  C:1012H         LINE#         132
  C:1014H         LINE#         133
  C:1017H         LINE#         134
  C:1019H         LINE#         135
  C:101CH         LINE#         136
  C:101EH         LINE#         137
  C:1021H         LINE#         138
  C:1022H         LINE#         139
  C:1024H         LINE#         143
  C:1027H         LINE#         144
  C:1029H         LINE#         145
  C:102BH         LINE#         146
  C:102EH         LINE#         147
  C:1031H         LINE#         148
  C:1033H         LINE#         149
  C:1035H         LINE#         150
  C:1038H         LINE#         151
  C:103AH         LINE#         152
  C:103DH         LINE#         154
  C:103EH         LINE#         155
  C:1041H         LINE#         157
  C:1042H         LINE#         158
  -------         ENDMOD        1SERRX

Program Size: data=8.0 xdata=0 code=4163
LINK/LOCATE RUN COMPLETE.  0 WARNING(S),  0 ERROR(S)
